target datalayout = "e-m:e-p270:32:32-p271:32:32-p272:64:64-i64:64-i128:128-f80:128-n8:16:32:64-S128"
target triple = "x86_64-pc-linux-gnu"

%struct.ident_t = type { i32, i32, i32, i32, ptr }
%class.SparseMatrix = type { i8, i32, i32, ptr, ptr }

@1 = private unnamed_addr constant %struct.ident_t { i32 0, i32 514, i32 0, i32 22, ptr @0 }, align 8
@.gomp_critical_user_.reduction.var = common global [8 x i32] zeroinitializer, align 8
@3 = private unnamed_addr constant %struct.ident_t { i32 0, i32 18, i32 0, i32 22, ptr @0 }, align 8

; Function Attrs: norecurse nounwind uwtable
define internal void @_ZNK12SparseMatrixIfE21MultiplyAndAddAverageIfEEvPKT_PS2_i.omp_outlined(ptr noalias noundef %0, ptr noalias noundef %1, ptr noundef %2, ptr noundef nonnull align 4 dereferenceable(4) %3, ptr noundef nonnull align 8 dereferenceable(8) %4, ptr noundef nonnull align 4 dereferenceable(4) %5) #17 {
  %7 = alloca ptr, align 8
  %8 = alloca ptr, align 8
  %9 = alloca ptr, align 8
  %10 = alloca ptr, align 8
  %11 = alloca ptr, align 8
  %12 = alloca ptr, align 8
  %13 = alloca i32, align 4
  %14 = alloca i32, align 4
  %15 = alloca i32, align 4
  %16 = alloca i32, align 4
  %17 = alloca i32, align 4
  %18 = alloca i32, align 4
  %19 = alloca i32, align 4
  %20 = alloca i32, align 4
  %21 = alloca float, align 4
  %22 = alloca i32, align 4
  %23 = alloca i32, align 4
  %24 = alloca [2 x ptr], align 8
  store ptr %0, ptr %7, align 8
  store ptr %1, ptr %8, align 8
  store ptr %2, ptr %9, align 8
  store ptr %3, ptr %10, align 8
  store ptr %4, ptr %11, align 8
  store ptr %5, ptr %12, align 8
  %25 = load ptr, ptr %9, align 8
  %26 = load ptr, ptr %10, align 8
  %27 = load ptr, ptr %11, align 8
  %28 = load ptr, ptr %12, align 8
  %29 = getelementptr inbounds %class.SparseMatrix, ptr %25, i32 0, i32 2
  %30 = load i32, ptr %29, align 8
  store i32 %30, ptr %14, align 4
  %31 = load i32, ptr %14, align 4
  %32 = sub nsw i32 %31, 0
  %33 = sdiv i32 %32, 1
  %34 = sub nsw i32 %33, 1
  store i32 %34, ptr %15, align 4
  store i32 0, ptr %16, align 4
  %35 = load i32, ptr %14, align 4
  %36 = icmp slt i32 0, %35
  br i1 %36, label %37, label %103

37:                                               ; preds = %6
  store i32 0, ptr %17, align 4
  %38 = load i32, ptr %15, align 4
  store i32 %38, ptr %18, align 4
  store i32 1, ptr %19, align 4
  store i32 0, ptr %20, align 4
  store float 0.000000e+00, ptr %21, align 4
  store i32 0, ptr %22, align 4
  %39 = load ptr, ptr %7, align 8
  %40 = load i32, ptr %39, align 4
  call void @__kmpc_for_static_init_4(ptr @1, i32 %40, i32 34, ptr %20, ptr %17, ptr %18, ptr %19, i32 1, i32 1)
  %41 = load i32, ptr %18, align 4
  %42 = load i32, ptr %15, align 4
  %43 = icmp sgt i32 %41, %42
  br i1 %43, label %44, label %46

44:                                               ; preds = %37
  %45 = load i32, ptr %15, align 4
  br label %48

46:                                               ; preds = %37
  %47 = load i32, ptr %18, align 4
  br label %48

48:                                               ; preds = %46, %44
  %49 = phi i32 [ %45, %44 ], [ %47, %46 ]
  store i32 %49, ptr %18, align 4
  %50 = load i32, ptr %17, align 4
  store i32 %50, ptr %13, align 4
  br label %51

51:                                               ; preds = %78, %48
  %52 = load i32, ptr %13, align 4
  %53 = load i32, ptr %18, align 4
  %54 = icmp sle i32 %52, %53
  br i1 %54, label %55, label %81

55:                                               ; preds = %51
  %56 = load i32, ptr %13, align 4
  %57 = mul nsw i32 %56, 1
  %58 = add nsw i32 0, %57
  store i32 %58, ptr %23, align 4
  %59 = getelementptr inbounds %class.SparseMatrix, ptr %25, i32 0, i32 3
  %60 = load ptr, ptr %59, align 8
  %61 = load i32, ptr %23, align 4
  %62 = sext i32 %61 to i64
  %63 = getelementptr inbounds i32, ptr %60, i64 %62
  %64 = load i32, ptr %63, align 4
  %65 = icmp ne i32 %64, 0
  br i1 %65, label %66, label %76

66:                                               ; preds = %55
  %67 = load ptr, ptr %27, align 8
  %68 = load i32, ptr %23, align 4
  %69 = sext i32 %68 to i64
  %70 = getelementptr inbounds float, ptr %67, i64 %69
  %71 = load float, ptr %70, align 4
  %72 = load float, ptr %21, align 4
  %73 = fadd float %72, %71
  store float %73, ptr %21, align 4
  %74 = load i32, ptr %22, align 4
  %75 = add nsw i32 %74, 1
  store i32 %75, ptr %22, align 4
  br label %76

76:                                               ; preds = %66, %55
  br label %77

77:                                               ; preds = %76
  br label %78

78:                                               ; preds = %77
  %79 = load i32, ptr %13, align 4
  %80 = add nsw i32 %79, 1
  store i32 %80, ptr %13, align 4
  br label %51

81:                                               ; preds = %51
  br label %82

82:                                               ; preds = %81
  %83 = load ptr, ptr %7, align 8
  %84 = load i32, ptr %83, align 4
  call void @__kmpc_for_static_fini(ptr @1, i32 %84)
  %85 = getelementptr inbounds [2 x ptr], ptr %24, i64 0, i64 0
  store ptr %21, ptr %85, align 8
  %86 = getelementptr inbounds [2 x ptr], ptr %24, i64 0, i64 1
  store ptr %22, ptr %86, align 8
  %87 = load ptr, ptr %7, align 8
  %88 = load i32, ptr %87, align 4
  %89 = call i32 @__kmpc_reduce_nowait(ptr @3, i32 %88, i32 2, i64 16, ptr %24, ptr @_ZNK12SparseMatrixIfE21MultiplyAndAddAverageIfEEvPKT_PS2_i.omp_outlined.omp.reduction.reduction_func, ptr @.gomp_critical_user_.reduction.var)
  switch i32 %89, label %102 [
    i32 1, label %90
    i32 2, label %97
  ]

90:                                               ; preds = %82
  %91 = load float, ptr %26, align 4
  %92 = load float, ptr %21, align 4
  %93 = fadd float %91, %92
  store float %93, ptr %26, align 4
  %94 = load i32, ptr %28, align 4
  %95 = load i32, ptr %22, align 4
  %96 = add nsw i32 %94, %95
  store i32 %96, ptr %28, align 4
  call void @__kmpc_end_reduce_nowait(ptr @3, i32 %88, ptr @.gomp_critical_user_.reduction.var)
  br label %102

97:                                               ; preds = %82
  %98 = load float, ptr %21, align 4
  %99 = atomicrmw fadd ptr %26, float %98 monotonic, align 4
  %100 = load i32, ptr %22, align 4
  %101 = atomicrmw add ptr %28, i32 %100 monotonic, align 4
  br label %102

102:                                              ; preds = %97, %90, %82
  br label %103

103:                                              ; preds = %102, %6
  ret void
}