; Function Attrs: norecurse nounwind uwtable
define internal void @_ZNK12SparseMatrixIfE21MultiplyAndAddAverageIfEEvPKT_PS2_i.omp_outlined(ptr noalias nocapture noundef readonly %0, ptr noalias nocapture readnone %1, ptr nocapture noundef readonly %2, ptr nocapture noundef nonnull align 4 dereferenceable(4) %3, ptr nocapture noundef nonnull readonly align 8 dereferenceable(8) %4, ptr nocapture noundef nonnull align 4 dereferenceable(4) %5) #23 {
  %7 = alloca i32, align 4
  %8 = alloca i32, align 4
  %9 = alloca i32, align 4
  %10 = alloca i32, align 4
  %11 = alloca float, align 4
  %12 = alloca i32, align 4
  %13 = alloca [2 x ptr], align 8
  %14 = getelementptr inbounds i8, ptr %2, i64 8
  %15 = load i32, ptr %14, align 8
  %16 = icmp sgt i32 %15, 0
  br i1 %16, label %17, label %55

17:                                               ; preds = %6
  %18 = add nsw i32 %15, -1
  store i32 0, ptr %7, align 4
  store i32 %18, ptr %8, align 4
  store i32 1, ptr %9, align 4
  store i32 0, ptr %10, align 4
  store float 0.000000e+00, ptr %11, align 4
  store i32 0, ptr %12, align 4
  %19 = load i32, ptr %0, align 4
  call void @__kmpc_for_static_init_4(ptr nonnull @1, i32 %19, i32 34, ptr nonnull %10, ptr nonnull %7, ptr nonnull %8, ptr nonnull %9, i32 1, i32 1)
  %20 = load i32, ptr %8, align 4
  %21 = call i32 @llvm.smin.i32(i32 %20, i32 %18)
  store i32 %21, ptr %8, align 4
  %22 = load i32, ptr %7, align 4
  %.not18 = icmp sgt i32 %22, %21
  br i1 %.not18, label %._crit_edge, label %.lr.ph

.lr.ph:                                           ; preds = %17
  %23 = getelementptr inbounds i8, ptr %2, i64 16
  %24 = load ptr, ptr %23, align 8
  %25 = load ptr, ptr %4, align 8
  %26 = sext i32 %22 to i64
  %27 = add nsw i32 %21, 1
  br label %28

28:                                               ; preds = %.lr.ph, %38
  %indvars.iv = phi i64 [ %26, %.lr.ph ], [ %indvars.iv.next, %38 ]
  %29 = phi float [ 0.000000e+00, %.lr.ph ], [ %40, %38 ]
  %30 = phi i32 [ 0, %.lr.ph ], [ %39, %38 ]
  %31 = getelementptr inbounds i32, ptr %24, i64 %indvars.iv
  %32 = load i32, ptr %31, align 4
  %.not16 = icmp eq i32 %32, 0
  br i1 %.not16, label %38, label %33

33:                                               ; preds = %28
  %34 = getelementptr inbounds float, ptr %25, i64 %indvars.iv
  %35 = load float, ptr %34, align 4
  %36 = fadd float %35, %29
  store float %36, ptr %11, align 4
  %37 = add nsw i32 %30, 1
  store i32 %37, ptr %12, align 4
  br label %38

38:                                               ; preds = %33, %28
  %39 = phi i32 [ %37, %33 ], [ %30, %28 ]
  %40 = phi float [ %36, %33 ], [ %29, %28 ]
  %indvars.iv.next = add nsw i64 %indvars.iv, 1
  %lftr.wideiv = trunc i64 %indvars.iv.next to i32
  %exitcond.not = icmp eq i32 %27, %lftr.wideiv
  br i1 %exitcond.not, label %._crit_edge, label %28

._crit_edge:                                      ; preds = %38, %17
  call void @__kmpc_for_static_fini(ptr nonnull @1, i32 %19)
  store ptr %11, ptr %13, align 8
  %41 = getelementptr inbounds i8, ptr %13, i64 8
  store ptr %12, ptr %41, align 8
  %42 = call i32 @__kmpc_reduce_nowait(ptr nonnull @3, i32 %19, i32 2, i64 16, ptr nonnull %13, ptr nonnull @_ZNK12SparseMatrixIfE21MultiplyAndAddAverageIfEEvPKT_PS2_i.omp_outlined.omp.reduction.reduction_func, ptr nonnull @.gomp_critical_user_.reduction.var)
  switch i32 %42, label %55 [
    i32 1, label %43
    i32 2, label %50
  ]

43:                                               ; preds = %._crit_edge
  %44 = load float, ptr %3, align 4
  %45 = load float, ptr %11, align 4
  %46 = fadd float %44, %45
  store float %46, ptr %3, align 4
  %47 = load i32, ptr %5, align 4
  %48 = load i32, ptr %12, align 4
  %49 = add nsw i32 %48, %47
  store i32 %49, ptr %5, align 4
  call void @__kmpc_end_reduce_nowait(ptr nonnull @3, i32 %19, ptr nonnull @.gomp_critical_user_.reduction.var)
  br label %55

50:                                               ; preds = %._crit_edge
  %51 = load float, ptr %11, align 4
  %52 = atomicrmw fadd ptr %3, float %51 monotonic, align 4
  %53 = load i32, ptr %12, align 4
  %54 = atomicrmw add ptr %5, i32 %53 monotonic, align 4
  br label %55

55:                                               ; preds = %._crit_edge, %43, %50, %6
  ret void
}